target datalayout = "e-m:e-p270:32:32-p271:32:32-p272:64:64-i64:64-i128:128-f80:128-n8:16:32:64-S128"
target triple = "x86_64-pc-linux-gnu"

%"class.Imath_3_2::Vec2" = type { float, float }
%"class.Imath_3_2::Vec3" = type { float, float, float }
%"class.Imath_3_2::Box" = type { %"class.Imath_3_2::Vec2.0", %"class.Imath_3_2::Vec2.0" }
%"class.Imath_3_2::Vec2.0" = type { i32, i32 }

; Function Attrs: mustprogress nounwind uwtable
define linkonce_odr hidden noundef float @_ZNSt14numeric_limitsIfE3minEv() #8 comdat align 2 {
  ret float 0x3810000000000000
}

; Function Attrs: inlinehint mustprogress nounwind uwtable
define linkonce_odr hidden noundef float @_ZNK9Imath_3_24Vec3IfE3dotERKS1_(ptr noundef nonnull align 4 dereferenceable(12) %0, ptr noundef nonnull align 4 dereferenceable(12) %1) #6 comdat align 2 {
  %3 = alloca ptr, align 8
  %4 = alloca ptr, align 8
  store ptr %0, ptr %3, align 8, !tbaa !3
  store ptr %1, ptr %4, align 8, !tbaa !3
  %5 = load ptr, ptr %3, align 8
  %6 = getelementptr inbounds nuw %"class.Imath_3_2::Vec3", ptr %5, i32 0, i32 0
  %7 = load float, ptr %6, align 4, !tbaa !11
  %8 = load ptr, ptr %4, align 8, !tbaa !3
  %9 = getelementptr inbounds nuw %"class.Imath_3_2::Vec3", ptr %8, i32 0, i32 0
  %10 = load float, ptr %9, align 4, !tbaa !11
  %11 = getelementptr inbounds nuw %"class.Imath_3_2::Vec3", ptr %5, i32 0, i32 1
  %12 = load float, ptr %11, align 4, !tbaa !13
  %13 = load ptr, ptr %4, align 8, !tbaa !3
  %14 = getelementptr inbounds nuw %"class.Imath_3_2::Vec3", ptr %13, i32 0, i32 1
  %15 = load float, ptr %14, align 4, !tbaa !13
  %16 = fmul float %12, %15
  %17 = call float @llvm.fmuladd.f32(float %7, float %10, float %16)
  %18 = getelementptr inbounds nuw %"class.Imath_3_2::Vec3", ptr %5, i32 0, i32 2
  %19 = load float, ptr %18, align 4, !tbaa !8
  %20 = load ptr, ptr %4, align 8, !tbaa !3
  %21 = getelementptr inbounds nuw %"class.Imath_3_2::Vec3", ptr %20, i32 0, i32 2
  %22 = load float, ptr %21, align 4, !tbaa !8
  %23 = call float @llvm.fmuladd.f32(float %19, float %22, float %17)
  ret float %23
}

; Function Attrs: inlinehint mustprogress nounwind uwtable
define linkonce_odr hidden void @_ZN9Imath_3_24Vec2IfEC2Eff(ptr noundef nonnull align 4 dereferenceable(8) %0, float noundef %1, float noundef %2) unnamed_addr #6 comdat align 2 {
  %4 = alloca ptr, align 8
  %5 = alloca float, align 4
  %6 = alloca float, align 4
  store ptr %0, ptr %4, align 8, !tbaa !16
  store float %1, ptr %5, align 4, !tbaa !12
  store float %2, ptr %6, align 4, !tbaa !12
  %7 = load ptr, ptr %4, align 8
  %8 = getelementptr inbounds nuw %"class.Imath_3_2::Vec2", ptr %7, i32 0, i32 0
  %9 = load float, ptr %5, align 4, !tbaa !12
  store float %9, ptr %8, align 4, !tbaa !18
  %10 = getelementptr inbounds nuw %"class.Imath_3_2::Vec2", ptr %7, i32 0, i32 1
  %11 = load float, ptr %6, align 4, !tbaa !12
  store float %11, ptr %10, align 4, !tbaa !20
  ret void
}

; Function Attrs: inlinehint mustprogress nounwind uwtable
define linkonce_odr noundef float @_ZSt5atan2ff(float noundef %0, float noundef %1) #6 comdat {
  %3 = alloca float, align 4
  %4 = alloca float, align 4
  store float %0, ptr %3, align 4, !tbaa !12
  store float %1, ptr %4, align 4, !tbaa !12
  %5 = load float, ptr %3, align 4, !tbaa !12
  %6 = load float, ptr %4, align 4, !tbaa !12
  %7 = call float @atan2f(float noundef %5, float noundef %6) #3, !tbaa !14
  ret float %7
}

; Function Attrs: inlinehint mustprogress nounwind uwtable
define linkonce_odr noundef float @_ZSt4asinf(float noundef %0) #6 comdat {
  %2 = alloca float, align 4
  store float %0, ptr %2, align 4, !tbaa !12
  %3 = load float, ptr %2, align 4, !tbaa !12
  %4 = call float @asinf(float noundef %3) #3, !tbaa !14
  ret float %4
}

; Function Attrs: inlinehint mustprogress nounwind uwtable
define linkonce_odr hidden noundef i32 @_ZN9Imath_3_24signIfEEiT_(float noundef %0) #6 comdat {
  %2 = alloca float, align 4
  store float %0, ptr %2, align 4, !tbaa !12
  %3 = load float, ptr %2, align 4, !tbaa !12
  %4 = fcmp ogt float %3, 0.000000e+00
  br i1 %4, label %5, label %6

5:                                                ; preds = %1
  br label %10

6:                                                ; preds = %1
  %7 = load float, ptr %2, align 4, !tbaa !12
  %8 = fcmp olt float %7, 0.000000e+00
  %9 = select i1 %8, i32 -1, i32 0
  br label %10

10:                                               ; preds = %6, %5
  %11 = phi i32 [ 1, %5 ], [ %9, %6 ]
  ret i32 %11
}

; Function Attrs: inlinehint mustprogress nounwind uwtable
define linkonce_odr noundef float @_ZSt4acosf(float noundef %0) #6 comdat {
  %2 = alloca float, align 4
  store float %0, ptr %2, align 4, !tbaa !12
  %3 = load float, ptr %2, align 4, !tbaa !12
  %4 = call float @acosf(float noundef %3) #3, !tbaa !14
  ret float %4
}

; Function Attrs: inlinehint mustprogress nounwind uwtable
define linkonce_odr hidden noundef float @_ZNK9Imath_3_24Vec3IfE6lengthEv(ptr noundef nonnull align 4 dereferenceable(12) %0) #6 comdat align 2 {
  %2 = alloca float, align 4
  %3 = alloca ptr, align 8
  %4 = alloca float, align 4
  %5 = alloca i32, align 4
  store ptr %0, ptr %3, align 8, !tbaa !3
  %6 = load ptr, ptr %3, align 8
  call void @llvm.lifetime.start.p0(i64 4, ptr %4) #3
  %7 = call noundef float @_ZNK9Imath_3_24Vec3IfE3dotERKS1_(ptr noundef nonnull align 4 dereferenceable(12) %6, ptr noundef nonnull align 4 dereferenceable(12) %6) #3
  store float %7, ptr %4, align 4, !tbaa !12
  %8 = load float, ptr %4, align 4, !tbaa !12
  %9 = call noundef float @_ZNSt14numeric_limitsIfE3minEv() #3
  %10 = fmul float 2.000000e+00, %9
  %11 = fcmp olt float %8, %10
  %12 = zext i1 %11 to i64
  %13 = call i64 @llvm.expect.i64(i64 %12, i64 0)
  %14 = icmp ne i64 %13, 0
  br i1 %14, label %15, label %17

15:                                               ; preds = %1
  %16 = call noundef float @_ZNK9Imath_3_24Vec3IfE10lengthTinyEv(ptr noundef nonnull align 4 dereferenceable(12) %6) #3
  store float %16, ptr %2, align 4
  store i32 1, ptr %5, align 4
  br label %20

17:                                               ; preds = %1
  %18 = load float, ptr %4, align 4, !tbaa !12
  %19 = call noundef float @_ZSt4sqrtf(float noundef %18)
  store float %19, ptr %2, align 4
  store i32 1, ptr %5, align 4
  br label %20

20:                                               ; preds = %17, %15
  call void @llvm.lifetime.end.p0(i64 4, ptr %4) #3
  %21 = load float, ptr %2, align 4
  ret float %21
}

; Function Attrs: inlinehint mustprogress nounwind uwtable
define linkonce_odr noundef float @_ZSt3absf(float noundef %0) #6 comdat {
  %2 = alloca float, align 4
  store float %0, ptr %2, align 4, !tbaa !12
  %3 = load float, ptr %2, align 4, !tbaa !12
  %4 = call float @llvm.fabs.f32(float %3)
  ret float %4
}

; Function Attrs: inlinehint mustprogress nounwind uwtable
define linkonce_odr noundef float @_ZSt4sqrtf(float noundef %0) #6 comdat {
  %2 = alloca float, align 4
  store float %0, ptr %2, align 4, !tbaa !12
  %3 = load float, ptr %2, align 4, !tbaa !12
  %4 = call float @sqrtf(float noundef %3) #3, !tbaa !14
  ret float %4
}

; Function Attrs: mustprogress nounwind uwtable
define void @_ZN7Imf_3_410LatLongMap13pixelPositionERKN9Imath_3_23BoxINS1_4Vec2IiEEEERKNS3_IfEE(ptr dead_on_unwind noalias writable sret(%"class.Imath_3_2::Vec2") align 4 %0, ptr noundef nonnull align 4 dereferenceable(16) %1, ptr noundef nonnull align 4 dereferenceable(8) %2) #8 {
  %4 = alloca ptr, align 8
  %5 = alloca ptr, align 8
  %6 = alloca ptr, align 8
  %7 = alloca float, align 4
  %8 = alloca float, align 4
  store ptr %0, ptr %4, align 8
  store ptr %1, ptr %5, align 8, !tbaa !21
  store ptr %2, ptr %6, align 8, !tbaa !16
  call void @llvm.lifetime.start.p0(i64 4, ptr %7) #3
  %9 = load ptr, ptr %6, align 8, !tbaa !16
  %10 = getelementptr inbounds nuw %"class.Imath_3_2::Vec2", ptr %9, i32 0, i32 1
  %11 = load float, ptr %10, align 4, !tbaa !20
  %12 = fdiv float %11, 0xC01921FB60000000
  %13 = fadd float %12, 5.000000e-01
  store float %13, ptr %7, align 4, !tbaa !12
  call void @llvm.lifetime.start.p0(i64 4, ptr %8) #3
  %14 = load ptr, ptr %6, align 8, !tbaa !16
  %15 = getelementptr inbounds nuw %"class.Imath_3_2::Vec2", ptr %14, i32 0, i32 0
  %16 = load float, ptr %15, align 4, !tbaa !18
  %17 = fdiv float %16, 0xC00921FB60000000
  %18 = fadd float %17, 5.000000e-01
  store float %18, ptr %8, align 4, !tbaa !12
  %19 = load float, ptr %7, align 4, !tbaa !12
  %20 = load ptr, ptr %5, align 8, !tbaa !21
  %21 = getelementptr inbounds nuw %"class.Imath_3_2::Box", ptr %20, i32 0, i32 1
  %22 = getelementptr inbounds nuw %"class.Imath_3_2::Vec2.0", ptr %21, i32 0, i32 0
  %23 = load i32, ptr %22, align 4, !tbaa !27
  %24 = load ptr, ptr %5, align 8, !tbaa !21
  %25 = getelementptr inbounds nuw %"class.Imath_3_2::Box", ptr %24, i32 0, i32 0
  %26 = getelementptr inbounds nuw %"class.Imath_3_2::Vec2.0", ptr %25, i32 0, i32 0
  %27 = load i32, ptr %26, align 4, !tbaa !28
  %28 = sub nsw i32 %23, %27
  %29 = sitofp i32 %28 to float
  %30 = load ptr, ptr %5, align 8, !tbaa !21
  %31 = getelementptr inbounds nuw %"class.Imath_3_2::Box", ptr %30, i32 0, i32 0
  %32 = getelementptr inbounds nuw %"class.Imath_3_2::Vec2.0", ptr %31, i32 0, i32 0
  %33 = load i32, ptr %32, align 4, !tbaa !28
  %34 = sitofp i32 %33 to float
  %35 = call float @llvm.fmuladd.f32(float %19, float %29, float %34)
  %36 = load float, ptr %8, align 4, !tbaa !12
  %37 = load ptr, ptr %5, align 8, !tbaa !21
  %38 = getelementptr inbounds nuw %"class.Imath_3_2::Box", ptr %37, i32 0, i32 1
  %39 = getelementptr inbounds nuw %"class.Imath_3_2::Vec2.0", ptr %38, i32 0, i32 1
  %40 = load i32, ptr %39, align 4, !tbaa !23
  %41 = load ptr, ptr %5, align 8, !tbaa !21
  %42 = getelementptr inbounds nuw %"class.Imath_3_2::Box", ptr %41, i32 0, i32 0
  %43 = getelementptr inbounds nuw %"class.Imath_3_2::Vec2.0", ptr %42, i32 0, i32 1
  %44 = load i32, ptr %43, align 4, !tbaa !26
  %45 = sub nsw i32 %40, %44
  %46 = sitofp i32 %45 to float
  %47 = load ptr, ptr %5, align 8, !tbaa !21
  %48 = getelementptr inbounds nuw %"class.Imath_3_2::Box", ptr %47, i32 0, i32 0
  %49 = getelementptr inbounds nuw %"class.Imath_3_2::Vec2.0", ptr %48, i32 0, i32 1
  %50 = load i32, ptr %49, align 4, !tbaa !26
  %51 = sitofp i32 %50 to float
  %52 = call float @llvm.fmuladd.f32(float %36, float %46, float %51)
  call void @_ZN9Imath_3_24Vec2IfEC2Eff(ptr noundef nonnull align 4 dereferenceable(8) %0, float noundef %35, float noundef %52) #3
  call void @llvm.lifetime.end.p0(i64 4, ptr %8) #3
  call void @llvm.lifetime.end.p0(i64 4, ptr %7) #3
  ret void
}

; Function Attrs: mustprogress uwtable
define void @_ZN7Imf_3_410LatLongMap7latLongERKN9Imath_3_24Vec3IfEE(ptr dead_on_unwind noalias writable sret(%"class.Imath_3_2::Vec2") align 4 %0, ptr noundef nonnull align 4 dereferenceable(12) %1) #4 {
  %3 = alloca ptr, align 8
  %4 = alloca ptr, align 8
  %5 = alloca float, align 4
  %6 = alloca float, align 4
  %7 = alloca float, align 4
  store ptr %0, ptr %3, align 8
  store ptr %1, ptr %4, align 8, !tbaa !3
  call void @llvm.lifetime.start.p0(i64 4, ptr %5) #3
  %8 = load ptr, ptr %4, align 8, !tbaa !3
  %9 = getelementptr inbounds nuw %"class.Imath_3_2::Vec3", ptr %8, i32 0, i32 2
  %10 = load float, ptr %9, align 4, !tbaa !8
  %11 = load ptr, ptr %4, align 8, !tbaa !3
  %12 = getelementptr inbounds nuw %"class.Imath_3_2::Vec3", ptr %11, i32 0, i32 2
  %13 = load float, ptr %12, align 4, !tbaa !8
  %14 = load ptr, ptr %4, align 8, !tbaa !3
  %15 = getelementptr inbounds nuw %"class.Imath_3_2::Vec3", ptr %14, i32 0, i32 0
  %16 = load float, ptr %15, align 4, !tbaa !11
  %17 = load ptr, ptr %4, align 8, !tbaa !3
  %18 = getelementptr inbounds nuw %"class.Imath_3_2::Vec3", ptr %17, i32 0, i32 0
  %19 = load float, ptr %18, align 4, !tbaa !11
  %20 = fmul float %16, %19
  %21 = call float @llvm.fmuladd.f32(float %10, float %13, float %20)
  %22 = call noundef float @_ZSt4sqrtf(float noundef %21)
  store float %22, ptr %5, align 4, !tbaa !12
  call void @llvm.lifetime.start.p0(i64 4, ptr %6) #3
  %23 = load float, ptr %5, align 4, !tbaa !12
  %24 = load ptr, ptr %4, align 8, !tbaa !3
  %25 = getelementptr inbounds nuw %"class.Imath_3_2::Vec3", ptr %24, i32 0, i32 1
  %26 = load float, ptr %25, align 4, !tbaa !13
  %27 = call noundef float @_ZSt3absf(float noundef %26)
  %28 = fcmp olt float %23, %27
  br i1 %28, label %29, label %41

29:                                               ; preds = %2
  %30 = load float, ptr %5, align 4, !tbaa !12
  %31 = load ptr, ptr %4, align 8, !tbaa !3
  %32 = call noundef float @_ZNK9Imath_3_24Vec3IfE6lengthEv(ptr noundef nonnull align 4 dereferenceable(12) %31) #3
  %33 = fdiv float %30, %32
  %34 = call noundef float @_ZSt4acosf(float noundef %33)
  %35 = load ptr, ptr %4, align 8, !tbaa !3
  %36 = getelementptr inbounds nuw %"class.Imath_3_2::Vec3", ptr %35, i32 0, i32 1
  %37 = load float, ptr %36, align 4, !tbaa !13
  %38 = call noundef i32 @_ZN9Imath_3_24signIfEEiT_(float noundef %37) #3
  %39 = sitofp i32 %38 to float
  %40 = fmul float %34, %39
  br label %49

41:                                               ; preds = %2
  %42 = load ptr, ptr %4, align 8, !tbaa !3
  %43 = getelementptr inbounds nuw %"class.Imath_3_2::Vec3", ptr %42, i32 0, i32 1
  %44 = load float, ptr %43, align 4, !tbaa !13
  %45 = load ptr, ptr %4, align 8, !tbaa !3
  %46 = call noundef float @_ZNK9Imath_3_24Vec3IfE6lengthEv(ptr noundef nonnull align 4 dereferenceable(12) %45) #3
  %47 = fdiv float %44, %46
  %48 = call noundef float @_ZSt4asinf(float noundef %47)
  br label %49

49:                                               ; preds = %41, %29
  %50 = phi float [ %40, %29 ], [ %48, %41 ]
  store float %50, ptr %6, align 4, !tbaa !12
  call void @llvm.lifetime.start.p0(i64 4, ptr %7) #3
  %51 = load ptr, ptr %4, align 8, !tbaa !3
  %52 = getelementptr inbounds nuw %"class.Imath_3_2::Vec3", ptr %51, i32 0, i32 2
  %53 = load float, ptr %52, align 4, !tbaa !8
  %54 = fcmp oeq float %53, 0.000000e+00
  br i1 %54, label %55, label %61

55:                                               ; preds = %49
  %56 = load ptr, ptr %4, align 8, !tbaa !3
  %57 = getelementptr inbounds nuw %"class.Imath_3_2::Vec3", ptr %56, i32 0, i32 0
  %58 = load float, ptr %57, align 4, !tbaa !11
  %59 = fcmp oeq float %58, 0.000000e+00
  br i1 %59, label %60, label %61

60:                                               ; preds = %55
  br label %69

61:                                               ; preds = %55, %49
  %62 = load ptr, ptr %4, align 8, !tbaa !3
  %63 = getelementptr inbounds nuw %"class.Imath_3_2::Vec3", ptr %62, i32 0, i32 0
  %64 = load float, ptr %63, align 4, !tbaa !11
  %65 = load ptr, ptr %4, align 8, !tbaa !3
  %66 = getelementptr inbounds nuw %"class.Imath_3_2::Vec3", ptr %65, i32 0, i32 2
  %67 = load float, ptr %66, align 4, !tbaa !8
  %68 = call noundef float @_ZSt5atan2ff(float noundef %64, float noundef %67)
  br label %69

69:                                               ; preds = %61, %60
  %70 = phi float [ 0.000000e+00, %60 ], [ %68, %61 ]
  store float %70, ptr %7, align 4, !tbaa !12
  %71 = load float, ptr %6, align 4, !tbaa !12
  %72 = load float, ptr %7, align 4, !tbaa !12
  call void @_ZN9Imath_3_24Vec2IfEC2Eff(ptr noundef nonnull align 4 dereferenceable(8) %0, float noundef %71, float noundef %72) #3
  call void @llvm.lifetime.end.p0(i64 4, ptr %7) #3
  call void @llvm.lifetime.end.p0(i64 4, ptr %6) #3
  call void @llvm.lifetime.end.p0(i64 4, ptr %5) #3
  ret void
}

; Function Attrs: mustprogress uwtable
define void @_ZN7Imf_3_410LatLongMap13pixelPositionERKN9Imath_3_23BoxINS1_4Vec2IiEEEERKNS1_4Vec3IfEE(ptr dead_on_unwind noalias writable sret(%"class.Imath_3_2::Vec2") align 4 %0, ptr noundef nonnull align 4 dereferenceable(16) %1, ptr noundef nonnull align 4 dereferenceable(12) %2) #4 {
  %4 = alloca ptr, align 8
  %5 = alloca ptr, align 8
  %6 = alloca ptr, align 8
  %7 = alloca %"class.Imath_3_2::Vec2", align 4
  store ptr %0, ptr %4, align 8
  store ptr %1, ptr %5, align 8, !tbaa !21
  store ptr %2, ptr %6, align 8, !tbaa !3
  %8 = load ptr, ptr %5, align 8, !tbaa !21
  call void @llvm.lifetime.start.p0(i64 8, ptr %7) #3
  %9 = load ptr, ptr %6, align 8, !tbaa !3
  call void @_ZN7Imf_3_410LatLongMap7latLongERKN9Imath_3_24Vec3IfEE(ptr dead_on_unwind writable sret(%"class.Imath_3_2::Vec2") align 4 %7, ptr noundef nonnull align 4 dereferenceable(12) %9)
  call void @_ZN7Imf_3_410LatLongMap13pixelPositionERKN9Imath_3_23BoxINS1_4Vec2IiEEEERKNS3_IfEE(ptr dead_on_unwind writable sret(%"class.Imath_3_2::Vec2") align 4 %0, ptr noundef nonnull align 4 dereferenceable(16) %8, ptr noundef nonnull align 4 dereferenceable(8) %7)
  call void @llvm.lifetime.end.p0(i64 8, ptr %7) #3
  ret void
}