; Function Attrs: mustprogress nounwind uwtable
define void @_ZN7Imf_3_410LatLongMap13pixelPositionERKN9Imath_3_23BoxINS1_4Vec2IiEEEERKNS1_4Vec3IfEE(ptr dead_on_unwind noalias writable writeonly sret(%"class.Imath_3_2::Vec2") align 4 captures(none) initializes((0, 8)) %0, ptr noundef nonnull readonly align 4 captures(none) dereferenceable(16) %1, ptr noundef nonnull align 4 dereferenceable(12) %2) local_unnamed_addr #3 {
  %4 = getelementptr inbounds nuw i8, ptr %2, i64 8
  %5 = load float, ptr %4, align 4, !tbaa !3, !noalias !22
  %6 = load float, ptr %2, align 4, !tbaa !8, !noalias !22
  %7 = fmul float %6, %6
  %8 = tail call float @llvm.fmuladd.f32(float %5, float %5, float %7)
  %sqrt.i = tail call float @llvm.sqrt.f32(float %8)
  %9 = getelementptr inbounds nuw i8, ptr %2, i64 4
  %10 = load float, ptr %9, align 4, !tbaa !9, !noalias !22
  %11 = tail call noundef float @llvm.fabs.f32(float %10)
  %12 = fcmp olt float %sqrt.i, %11
  %13 = fmul float %10, %10
  %14 = tail call float @llvm.fmuladd.f32(float %6, float %6, float %13)
  %15 = tail call noundef float @llvm.fmuladd.f32(float %5, float %5, float %14)
  %16 = fcmp olt float %15, 0x3820000000000000
  br i1 %12, label %17, label %29

17:                                               ; preds = %3
  br i1 %16, label %18, label %20, !prof !10

18:                                               ; preds = %17
  %19 = tail call noundef float @_ZNK9Imath_3_24Vec3IfE10lengthTinyEv(ptr noundef nonnull align 4 dereferenceable(12) %2) #13, !noalias !22
  %.pre.i = load float, ptr %9, align 4, !tbaa !9, !noalias !22
  br label %_ZNK9Imath_3_24Vec3IfE6lengthEv.exit.i

20:                                               ; preds = %17
  %sqrt.i.i = tail call float @llvm.sqrt.f32(float %15)
  br label %_ZNK9Imath_3_24Vec3IfE6lengthEv.exit.i

_ZNK9Imath_3_24Vec3IfE6lengthEv.exit.i:           ; preds = %20, %18
  %21 = phi float [ %.pre.i, %18 ], [ %10, %20 ]
  %.0.i.i = phi float [ %19, %18 ], [ %sqrt.i.i, %20 ]
  %22 = fdiv float %sqrt.i, %.0.i.i
  %23 = tail call noundef float @acosf(float noundef %22) #13, !tbaa !11, !noalias !22
  %24 = fcmp ogt float %21, 0.000000e+00
  %25 = fcmp olt float %21, 0.000000e+00
  %26 = sitofp i1 %25 to float
  %27 = select i1 %24, float 1.000000e+00, float %26
  %28 = fmul float %23, %27
  br label %35

29:                                               ; preds = %3
  br i1 %16, label %30, label %32, !prof !10

30:                                               ; preds = %29
  %31 = tail call noundef float @_ZNK9Imath_3_24Vec3IfE10lengthTinyEv(ptr noundef nonnull align 4 dereferenceable(12) %2) #13, !noalias !22
  br label %_ZNK9Imath_3_24Vec3IfE6lengthEv.exit20.i

32:                                               ; preds = %29
  %sqrt.i18.i = tail call float @llvm.sqrt.f32(float %15)
  br label %_ZNK9Imath_3_24Vec3IfE6lengthEv.exit20.i

_ZNK9Imath_3_24Vec3IfE6lengthEv.exit20.i:         ; preds = %32, %30
  %.0.i19.i = phi float [ %31, %30 ], [ %sqrt.i18.i, %32 ]
  %33 = fdiv float %10, %.0.i19.i
  %34 = tail call noundef float @asinf(float noundef %33) #13, !tbaa !11, !noalias !22
  br label %35

35:                                               ; preds = %_ZNK9Imath_3_24Vec3IfE6lengthEv.exit20.i, %_ZNK9Imath_3_24Vec3IfE6lengthEv.exit.i
  %36 = phi float [ %28, %_ZNK9Imath_3_24Vec3IfE6lengthEv.exit.i ], [ %34, %_ZNK9Imath_3_24Vec3IfE6lengthEv.exit20.i ]
  %37 = load float, ptr %4, align 4, !tbaa !3, !noalias !22
  %38 = fcmp oeq float %37, 0.000000e+00
  %39 = load float, ptr %2, align 4, !noalias !22
  %40 = fcmp oeq float %39, 0.000000e+00
  %or.cond.i = select i1 %38, i1 %40, i1 false
  br i1 %or.cond.i, label %_ZN7Imf_3_410LatLongMap7latLongERKN9Imath_3_24Vec3IfEE.exit, label %41

41:                                               ; preds = %35
  %42 = tail call noundef float @atan2f(float noundef %39, float noundef %37) #13, !tbaa !11, !noalias !22
  br label %_ZN7Imf_3_410LatLongMap7latLongERKN9Imath_3_24Vec3IfEE.exit

_ZN7Imf_3_410LatLongMap7latLongERKN9Imath_3_24Vec3IfEE.exit: ; preds = %35, %41
  %43 = phi float [ %42, %41 ], [ 0.000000e+00, %35 ]
  tail call void @llvm.experimental.noalias.scope.decl(metadata !25)
  %44 = fdiv float %43, 0x401921FB60000000
  %45 = fsub float 5.000000e-01, %44
  %46 = fdiv float %36, 0x400921FB60000000
  %47 = fsub float 5.000000e-01, %46
  %48 = getelementptr inbounds nuw i8, ptr %1, i64 8
  %49 = load i32, ptr %48, align 4, !tbaa !20, !noalias !25
  %50 = load i32, ptr %1, align 4, !tbaa !21, !noalias !25
  %51 = sub nsw i32 %49, %50
  %52 = sitofp i32 %51 to float
  %53 = sitofp i32 %50 to float
  %54 = tail call float @llvm.fmuladd.f32(float %45, float %52, float %53)
  %55 = getelementptr inbounds nuw i8, ptr %1, i64 12
  %56 = load i32, ptr %55, align 4, !tbaa !16, !noalias !25
  %57 = getelementptr inbounds nuw i8, ptr %1, i64 4
  %58 = load i32, ptr %57, align 4, !tbaa !19, !noalias !25
  %59 = sub nsw i32 %56, %58
  %60 = sitofp i32 %59 to float
  %61 = sitofp i32 %58 to float
  %62 = tail call float @llvm.fmuladd.f32(float %47, float %60, float %61)
  store float %54, ptr %0, align 4, !tbaa !13, !alias.scope !25
  %63 = getelementptr inbounds nuw i8, ptr %0, i64 4
  store float %62, ptr %63, align 4, !tbaa !15, !alias.scope !25
  ret void
}